; ModuleID = '34/514.c'
source_filename = "34/514.c"
target datalayout = "e-m:e-p270:32:32-p271:32:32-p272:64:64-i64:64-f80:128-n8:16:32:64-S128"
target triple = "x86_64-pc-linux-gnu"

@.str = private unnamed_addr constant [3 x i8] c"%d\00", align 1
@.str.1 = private unnamed_addr constant [4 x i8] c"End\00", align 1
@.str.2 = private unnamed_addr constant [11 x i8] c"%d*3+1=%d\0A\00", align 1
@.str.3 = private unnamed_addr constant [9 x i8] c"%d/2=%d\0A\00", align 1

; Function Attrs: noinline nounwind uwtable
define dso_local i32 @main(i32 %0, i8** %1) #0 {
  %3 = alloca i32, align 4
  %4 = alloca i32, align 4
  %5 = alloca i8**, align 8
  %6 = alloca i32, align 4
  %7 = alloca i32, align 4
  %8 = alloca i32, align 4
  store i32 0, i32* %3, align 4
  store i32 %0, i32* %4, align 4
  store i8** %1, i8*** %5, align 8
  %9 = call i32 (i8*, ...) @__isoc99_scanf(i8* getelementptr inbounds ([3 x i8], [3 x i8]* @.str, i64 0, i64 0), i32* %6)
  store i32 1, i32* %8, align 4
  br label %10

10:                                               ; preds = %43, %2
  %11 = load i32, i32* %8, align 4
  %12 = icmp slt i32 %11, 100
  br i1 %12, label %13, label %46

13:                                               ; preds = %10
  %14 = load i32, i32* %6, align 4
  %15 = icmp eq i32 %14, 1
  br i1 %15, label %16, label %18

16:                                               ; preds = %13
  %17 = call i32 (i8*, ...) @printf(i8* getelementptr inbounds ([4 x i8], [4 x i8]* @.str.1, i64 0, i64 0))
  br label %46

18:                                               ; preds = %13
  %19 = load i32, i32* %6, align 4
  %20 = srem i32 %19, 2
  %21 = icmp eq i32 %20, 1
  br i1 %21, label %22, label %30

22:                                               ; preds = %18
  %23 = load i32, i32* %6, align 4
  %24 = mul nsw i32 %23, 3
  %25 = add nsw i32 %24, 1
  store i32 %25, i32* %7, align 4
  %26 = load i32, i32* %6, align 4
  %27 = load i32, i32* %7, align 4
  %28 = call i32 (i8*, ...) @printf(i8* getelementptr inbounds ([11 x i8], [11 x i8]* @.str.2, i64 0, i64 0), i32 %26, i32 %27)
  %29 = load i32, i32* %7, align 4
  store i32 %29, i32* %6, align 4
  store i32 0, i32* %7, align 4
  br label %30

30:                                               ; preds = %22, %18
  %31 = load i32, i32* %6, align 4
  %32 = srem i32 %31, 2
  %33 = icmp eq i32 %32, 0
  br i1 %33, label %34, label %41

34:                                               ; preds = %30
  %35 = load i32, i32* %6, align 4
  %36 = sdiv i32 %35, 2
  store i32 %36, i32* %7, align 4
  %37 = load i32, i32* %6, align 4
  %38 = load i32, i32* %7, align 4
  %39 = call i32 (i8*, ...) @printf(i8* getelementptr inbounds ([9 x i8], [9 x i8]* @.str.3, i64 0, i64 0), i32 %37, i32 %38)
  %40 = load i32, i32* %7, align 4
  store i32 %40, i32* %6, align 4
  store i32 0, i32* %7, align 4
  br label %41

41:                                               ; preds = %34, %30
  br label %42

42:                                               ; preds = %41
  br label %43

43:                                               ; preds = %42
  %44 = load i32, i32* %8, align 4
  %45 = add nsw i32 %44, 1
  store i32 %45, i32* %8, align 4
  br label %10

46:                                               ; preds = %16, %10
  ret i32 0
}

declare dso_local i32 @__isoc99_scanf(i8*, ...) #1

declare dso_local i32 @printf(i8*, ...) #1


!llvm.module.flags = !{!0}
!llvm.ident = !{!1}

!0 = !{i32 1, !"wchar_size", i32 4}
!1 = !{!"clang version 10.0.0-4ubuntu1 "}
